; Function Attrs: mustprogress uwtable
define hidden noundef zeroext i1 @_ZN15expr_dominators7compileEP4expr(ptr noundef nonnull align 8 dereferenceable(128) %0, ptr noundef %1) local_unnamed_addr #3 align 2 {
  tail call void @_ZN15expr_dominators5resetEv(ptr noundef nonnull align 8 dereferenceable(128) %0)
  %3 = getelementptr inbounds nuw i8, ptr %0, i64 8
  %.not.i = icmp eq ptr %1, null
  br i1 %.not.i, label %7, label %_ZN11ast_manager7inc_refEP3ast.exit.i

_ZN11ast_manager7inc_refEP3ast.exit.i:            ; preds = %2
  %4 = getelementptr inbounds nuw i8, ptr %1, i64 8
  %5 = load i32, ptr %4, align 4, !tbaa !82
  %6 = add i32 %5, 1
  store i32 %6, ptr %4, align 4, !tbaa !82
  br label %7

7:                                                ; preds = %_ZN11ast_manager7inc_refEP3ast.exit.i, %2
  %8 = load ptr, ptr %3, align 8, !tbaa !12
  %.not.i4.i = icmp eq ptr %8, null
  br i1 %.not.i4.i, label %_ZN7obj_refI4expr11ast_managerEaSEPS0_.exit, label %9

9:                                                ; preds = %7
  %10 = getelementptr inbounds nuw i8, ptr %0, i64 16
  %11 = load ptr, ptr %10, align 8, !tbaa !83
  %12 = getelementptr inbounds nuw i8, ptr %8, i64 8
  %13 = load i32, ptr %12, align 4, !tbaa !82
  %14 = add i32 %13, -1
  store i32 %14, ptr %12, align 4, !tbaa !82
  %15 = icmp eq i32 %14, 0
  br i1 %15, label %16, label %_ZN7obj_refI4expr11ast_managerEaSEPS0_.exit

16:                                               ; preds = %9
  tail call void @_ZN11ast_manager11delete_nodeEP3ast(ptr noundef nonnull align 8 dereferenceable(976) %11, ptr noundef nonnull %8)
  br label %_ZN7obj_refI4expr11ast_managerEaSEPS0_.exit

_ZN7obj_refI4expr11ast_managerEaSEPS0_.exit:      ; preds = %7, %9, %16
  store ptr %1, ptr %3, align 8, !tbaa !12
  tail call void @_ZN15expr_dominators18compute_post_orderEv(ptr noundef nonnull align 8 dereferenceable(128) %0)
  %17 = tail call noundef zeroext i1 @_ZN15expr_dominators18compute_dominatorsEv(ptr noundef nonnull align 8 dereferenceable(128) %0)
  br i1 %17, label %18, label %19

18:                                               ; preds = %_ZN7obj_refI4expr11ast_managerEaSEPS0_.exit
  tail call void @_ZN15expr_dominators12extract_treeEv(ptr noundef nonnull align 8 dereferenceable(128) %0)
  br label %19

19:                                               ; preds = %_ZN7obj_refI4expr11ast_managerEaSEPS0_.exit, %18
  ret i1 %17
}